; ModuleID = '50/2069.c'
source_filename = "50/2069.c"
target datalayout = "e-m:e-p270:32:32-p271:32:32-p272:64:64-i64:64-f80:128-n8:16:32:64-S128"
target triple = "x86_64-pc-linux-gnu"

@__const.main.a = private unnamed_addr constant [12 x i32] [i32 31, i32 28, i32 31, i32 30, i32 31, i32 30, i32 31, i32 31, i32 30, i32 31, i32 30, i32 31], align 16
@.str = private unnamed_addr constant [3 x i8] c"%d\00", align 1
@.str.1 = private unnamed_addr constant [4 x i8] c"\0A%d\00", align 1

; Function Attrs: noinline nounwind uwtable
define dso_local i32 @main() #0 {
  %1 = alloca i32, align 4
  %2 = alloca i32, align 4
  %3 = alloca [12 x i32], align 16
  %4 = alloca i32, align 4
  %5 = alloca i32, align 4
  %6 = alloca i32, align 4
  store i32 0, i32* %1, align 4
  %7 = bitcast [12 x i32]* %3 to i8*
  call void @llvm.memcpy.p0i8.p0i8.i64(i8* align 16 %7, i8* align 16 bitcast ([12 x i32]* @__const.main.a to i8*), i64 48, i1 false)
  store i32 0, i32* %4, align 4
  %8 = call i32 (i8*, ...) @__isoc99_scanf(i8* getelementptr inbounds ([3 x i8], [3 x i8]* @.str, i64 0, i64 0), i32* %2)
  store i32 0, i32* %5, align 4
  br label %9

9:                                                ; preds = %56, %0
  %10 = load i32, i32* %5, align 4
  %11 = icmp slt i32 %10, 12
  br i1 %11, label %12, label %59

12:                                               ; preds = %9
  store i32 1, i32* %6, align 4
  br label %13

13:                                               ; preds = %52, %12
  %14 = load i32, i32* %6, align 4
  %15 = load i32, i32* %5, align 4
  %16 = sext i32 %15 to i64
  %17 = getelementptr inbounds [12 x i32], [12 x i32]* %3, i64 0, i64 %16
  %18 = load i32, i32* %17, align 4
  %19 = icmp sle i32 %14, %18
  br i1 %19, label %20, label %55

20:                                               ; preds = %13
  %21 = load i32, i32* %5, align 4
  %22 = icmp ne i32 %21, 0
  br i1 %22, label %26, label %23

23:                                               ; preds = %20
  %24 = load i32, i32* %6, align 4
  %25 = icmp ne i32 %24, 1
  br i1 %25, label %26, label %51

26:                                               ; preds = %23, %20
  %27 = load i32, i32* %2, align 4
  %28 = add nsw i32 %27, 1
  store i32 %28, i32* %2, align 4
  %29 = load i32, i32* %2, align 4
  %30 = icmp eq i32 %29, 8
  br i1 %30, label %31, label %32

31:                                               ; preds = %26
  store i32 1, i32* %2, align 4
  br label %32

32:                                               ; preds = %31, %26
  %33 = load i32, i32* %2, align 4
  %34 = icmp eq i32 %33, 5
  br i1 %34, label %35, label %50

35:                                               ; preds = %32
  %36 = load i32, i32* %6, align 4
  %37 = icmp eq i32 %36, 13
  br i1 %37, label %38, label %50

38:                                               ; preds = %35
  %39 = load i32, i32* %4, align 4
  %40 = icmp eq i32 %39, 0
  br i1 %40, label %41, label %45

41:                                               ; preds = %38
  %42 = load i32, i32* %5, align 4
  %43 = add nsw i32 %42, 1
  %44 = call i32 (i8*, ...) @printf(i8* getelementptr inbounds ([3 x i8], [3 x i8]* @.str, i64 0, i64 0), i32 %43)
  store i32 1, i32* %4, align 4
  br label %49

45:                                               ; preds = %38
  %46 = load i32, i32* %5, align 4
  %47 = add nsw i32 %46, 1
  %48 = call i32 (i8*, ...) @printf(i8* getelementptr inbounds ([4 x i8], [4 x i8]* @.str.1, i64 0, i64 0), i32 %47)
  br label %49

49:                                               ; preds = %45, %41
  br label %50

50:                                               ; preds = %49, %35, %32
  br label %51

51:                                               ; preds = %50, %23
  br label %52

52:                                               ; preds = %51
  %53 = load i32, i32* %6, align 4
  %54 = add nsw i32 %53, 1
  store i32 %54, i32* %6, align 4
  br label %13

55:                                               ; preds = %13
  br label %56

56:                                               ; preds = %55
  %57 = load i32, i32* %5, align 4
  %58 = add nsw i32 %57, 1
  store i32 %58, i32* %5, align 4
  br label %9

59:                                               ; preds = %9
  ret i32 0
}

; Function Attrs: argmemonly nounwind willreturn
declare void @llvm.memcpy.p0i8.p0i8.i64(i8* noalias nocapture writeonly, i8* noalias nocapture readonly, i64, i1 immarg) #1

declare dso_local i32 @__isoc99_scanf(i8*, ...) #2

declare dso_local i32 @printf(i8*, ...) #2


!llvm.module.flags = !{!0}
!llvm.ident = !{!1}

!0 = !{i32 1, !"wchar_size", i32 4}
!1 = !{!"clang version 10.0.0-4ubuntu1 "}
